; ModuleID = 'bench/gromacs/original/gmxassert.ll'
source_filename = "bench/gromacs/original/gmxassert.ll"
target datalayout = "e-m:e-p270:32:32-p271:32:32-p272:64:64-i64:64-i128:128-f80:128-n8:16:32:64-S128"
target triple = "x86_64-pc-linux-gnu"

@stderr = external local_unnamed_addr global ptr, align 8
@.str = private unnamed_addr constant [17 x i8] c"Assertion failed\00", align 1
@.str.1 = private unnamed_addr constant [15 x i8] c"Condition: %s\0A\00", align 1

; Function Attrs: cold mustprogress noreturn uwtable
define void @_ZN3gmx8internal13assertHandlerEPKcS2_S2_S2_i(ptr noundef %0, ptr noundef %1, ptr noundef %2, ptr noundef %3, i32 noundef %4) local_unnamed_addr #0 {
  %6 = load ptr, ptr @stderr, align 8, !tbaa !4
  tail call void @_ZN3gmx8internal21printFatalErrorHeaderEP8_IO_FILEPKcS4_S4_i(ptr noundef %6, ptr noundef nonnull @.str, ptr noundef %2, ptr noundef %3, i32 noundef %4)
  %7 = load ptr, ptr @stderr, align 8, !tbaa !4
  %8 = tail call i32 (ptr, ptr, ...) @fprintf(ptr noundef %7, ptr noundef nonnull @.str.1, ptr noundef %0) #4
  %9 = load ptr, ptr @stderr, align 8, !tbaa !4
  tail call void @_ZN3gmx8internal26printFatalErrorMessageLineEP8_IO_FILEPKci(ptr noundef %9, ptr noundef %1, i32 noundef 0)
  %10 = load ptr, ptr @stderr, align 8, !tbaa !4
  tail call void @_ZN3gmx8internal21printFatalErrorFooterEP8_IO_FILE(ptr noundef %10)
  tail call void @_Z23gmx_exit_on_fatal_error8ExitTypei(i32 noundef 1, i32 noundef 1) #5
  unreachable
}

declare void @_ZN3gmx8internal21printFatalErrorHeaderEP8_IO_FILEPKcS4_S4_i(ptr noundef, ptr noundef, ptr noundef, ptr noundef, i32 noundef) local_unnamed_addr #1

; Function Attrs: nofree nounwind
declare noundef i32 @fprintf(ptr noundef captures(none), ptr noundef readonly captures(none), ...) local_unnamed_addr #2

declare void @_ZN3gmx8internal26printFatalErrorMessageLineEP8_IO_FILEPKci(ptr noundef, ptr noundef, i32 noundef) local_unnamed_addr #1

declare void @_ZN3gmx8internal21printFatalErrorFooterEP8_IO_FILE(ptr noundef) local_unnamed_addr #1

; Function Attrs: noreturn
declare void @_Z23gmx_exit_on_fatal_error8ExitTypei(i32 noundef, i32 noundef) local_unnamed_addr #3


!llvm.module.flags = !{!0, !1, !2, !3}

!0 = !{i32 1, !"wchar_size", i32 4}
!1 = !{i32 7, !"openmp", i32 51}
!2 = !{i32 8, !"PIC Level", i32 2}
!3 = !{i32 7, !"uwtable", i32 2}
!4 = !{!5, !5, i64 0}
!5 = !{!"p1 _ZTS8_IO_FILE", !6, i64 0}
!6 = !{!"any pointer", !7, i64 0}
!7 = !{!"omnipotent char", !8, i64 0}
!8 = !{!"Simple C++ TBAA"}
